target datalayout = "e-m:e-p270:32:32-p271:32:32-p272:64:64-i64:64-i128:128-f80:128-n8:16:32:64-S128"
target triple = "x86_64-pc-linux-gnu"

%struct.archive_read = type { %struct.archive, ptr, i32, i64, i64, %struct.archive_read_client, [16 x %struct.archive_read_filter_bidder], ptr, i32, i64, i32, i32, [16 x %struct.archive_format_descriptor], ptr, ptr, ptr, %struct.anon }
%struct.archive = type { i32, i32, ptr, i32, ptr, i32, i32, ptr, %struct.archive_string, ptr, i32, i32, ptr, ptr, i64, i64, i64, i8, i64 }
%struct.archive_string = type { ptr, i64, i64 }
%struct.archive_read_client = type { ptr, ptr, ptr, ptr, ptr, ptr, i32, i32, i64, ptr }
%struct.archive_read_filter_bidder = type { ptr, ptr, ptr }
%struct.archive_format_descriptor = type { ptr, ptr, ptr, ptr, ptr, ptr, ptr, ptr, ptr, ptr, ptr }
%struct.anon = type { ptr, ptr, i32, ptr, ptr }
%struct._7zip = type { %struct._7z_stream_info, i32, i32, i64, i64, i64, i64, i64, i64, ptr, ptr, ptr, i64, i64, i64, i8, ptr, ptr, i64, i64, i64, i32, i64, i32, i32, i64, i64, i64, i64, %struct.lzma_stream, i32, %struct.bz_stream, i32, %struct.z_stream_s, i32, ptr, i32, i32, %struct.CPpmd7, %struct.CPpmd7z_RangeDec, %struct.IByteIn, %struct.anon.0, i32, i32, i64, [4 x i8], i64, i32, i32, i64, [3 x ptr], [3 x i64], [3 x i64], ptr, i64, i64, i64, [258 x i16], i8, i32, i32, i64, ptr, [64 x i8], i32 }
%struct._7z_stream_info = type { %struct._7z_pack_info, %struct._7z_coders_info, %struct._7z_substream_info }
%struct._7z_pack_info = type { i64, i64, ptr, %struct._7z_digests, ptr }
%struct._7z_digests = type { ptr, ptr }
%struct._7z_coders_info = type { i64, ptr, i64 }
%struct._7z_substream_info = type { i64, ptr, ptr, ptr }
%struct.lzma_stream = type { ptr, i64, i64, ptr, i64, i64, ptr, ptr, ptr, ptr, ptr, ptr, i64, i64, i64, i64, i32, i32 }
%struct.bz_stream = type { ptr, i32, i32, i32, ptr, i32, i32, i32, ptr, ptr, ptr, ptr }
%struct.z_stream_s = type { ptr, i32, i64, ptr, i32, i64, ptr, ptr, ptr, ptr, ptr, i32, i64, i64 }
%struct.CPpmd7 = type { ptr, ptr, ptr, i32, i32, i32, i32, i32, i32, i32, i32, i32, ptr, ptr, ptr, ptr, ptr, i32, [38 x i8], [128 x i8], [38 x i32], [256 x i8], [256 x i8], [256 x i8], %struct.CPpmd_See, [25 x [16 x %struct.CPpmd_See]], [128 x [64 x i16]] }
%struct.CPpmd_See = type { i16, i8, i8 }
%struct.CPpmd7z_RangeDec = type { %struct.IPpmd7_RangeDec, i32, i32, i32, i32, ptr }
%struct.IPpmd7_RangeDec = type { ptr, ptr, ptr }
%struct.IByteIn = type { ptr, ptr }
%struct.anon.0 = type { ptr, i64, i64, i64, ptr, i64, i64, i32 }
%struct._7zip_entry = type { i64, ptr, i32, i32, i32, i64, i64, i64, i64, i64, i64, i32, i32 }
%struct._7z_folder = type { i64, ptr, i64, ptr, i64, ptr, i64, i64, ptr, i8, i32, i64, i32, i64 }

@.str.17 = private unnamed_addr constant [26 x i8] c"Truncated 7-Zip file body\00", align 1

; Function Attrs: nounwind uwtable
define internal i64 @skip_stream(ptr noundef %0, i64 noundef %1) #0 {
  %3 = alloca i64, align 8
  %4 = alloca ptr, align 8
  %5 = alloca i64, align 8
  %6 = alloca ptr, align 8
  %7 = alloca ptr, align 8
  %8 = alloca i64, align 8
  %9 = alloca i64, align 8
  %10 = alloca i32, align 4
  store ptr %0, ptr %4, align 8, !tbaa !9
  store i64 %1, ptr %5, align 8, !tbaa !45
  call void @llvm.lifetime.start.p0(i64 8, ptr %6) #12
  %11 = load ptr, ptr %4, align 8, !tbaa !9
  %12 = getelementptr inbounds nuw %struct.archive_read, ptr %11, i32 0, i32 13
  %13 = load ptr, ptr %12, align 8, !tbaa !51
  %14 = getelementptr inbounds nuw %struct.archive_format_descriptor, ptr %13, i32 0, i32 0
  %15 = load ptr, ptr %14, align 8, !tbaa !64
  store ptr %15, ptr %6, align 8, !tbaa !13
  call void @llvm.lifetime.start.p0(i64 8, ptr %7) #12
  call void @llvm.lifetime.start.p0(i64 8, ptr %8) #12
  call void @llvm.lifetime.start.p0(i64 8, ptr %9) #12
  %16 = load i64, ptr %5, align 8, !tbaa !45
  store i64 %16, ptr %9, align 8, !tbaa !45
  %17 = load ptr, ptr %6, align 8, !tbaa !13
  %18 = getelementptr inbounds nuw %struct._7zip, ptr %17, i32 0, i32 21
  %19 = load i32, ptr %18, align 8, !tbaa !174
  %20 = icmp eq i32 %19, 0
  br i1 %20, label %21, label %39

21:                                               ; preds = %2
  %22 = load i64, ptr %5, align 8, !tbaa !45
  %23 = load ptr, ptr %6, align 8, !tbaa !13
  %24 = getelementptr inbounds nuw %struct._7zip, ptr %23, i32 0, i32 0
  %25 = getelementptr inbounds nuw %struct._7z_stream_info, ptr %24, i32 0, i32 1
  %26 = getelementptr inbounds nuw %struct._7z_coders_info, ptr %25, i32 0, i32 1
  %27 = load ptr, ptr %26, align 8, !tbaa !81
  %28 = load ptr, ptr %6, align 8, !tbaa !13
  %29 = getelementptr inbounds nuw %struct._7zip, ptr %28, i32 0, i32 10
  %30 = load ptr, ptr %29, align 8, !tbaa !72
  %31 = getelementptr inbounds nuw %struct._7zip_entry, ptr %30, i32 0, i32 2
  %32 = load i32, ptr %31, align 8, !tbaa !78
  %33 = zext i32 %32 to i64
  %34 = getelementptr inbounds nuw %struct._7z_folder, ptr %27, i64 %33
  %35 = getelementptr inbounds nuw %struct._7z_folder, ptr %34, i32 0, i32 13
  %36 = load i64, ptr %35, align 8, !tbaa !175
  %37 = add i64 %36, %22
  store i64 %37, ptr %35, align 8, !tbaa !175
  %38 = load i64, ptr %5, align 8, !tbaa !45
  store i64 %38, ptr %3, align 8
  store i32 1, ptr %10, align 4
  br label %70

39:                                               ; preds = %2
  br label %40

40:                                               ; preds = %67, %39
  %41 = load i64, ptr %9, align 8, !tbaa !45
  %42 = icmp ne i64 %41, 0
  br i1 %42, label %43, label %68

43:                                               ; preds = %40
  %44 = load ptr, ptr %4, align 8, !tbaa !9
  %45 = load i64, ptr %9, align 8, !tbaa !45
  %46 = call i64 @read_stream(ptr noundef %44, ptr noundef %7, i64 noundef %45, i64 noundef 0)
  store i64 %46, ptr %8, align 8, !tbaa !45
  %47 = load i64, ptr %8, align 8, !tbaa !45
  %48 = icmp slt i64 %47, 0
  br i1 %48, label %49, label %51

49:                                               ; preds = %43
  %50 = load i64, ptr %8, align 8, !tbaa !45
  store i64 %50, ptr %3, align 8
  store i32 1, ptr %10, align 4
  br label %70

51:                                               ; preds = %43
  %52 = load i64, ptr %8, align 8, !tbaa !45
  %53 = icmp eq i64 %52, 0
  br i1 %53, label %54, label %57

54:                                               ; preds = %51
  %55 = load ptr, ptr %4, align 8, !tbaa !9
  %56 = getelementptr inbounds nuw %struct.archive_read, ptr %55, i32 0, i32 0
  call void (ptr, i32, ptr, ...) @archive_set_error(ptr noundef %56, i32 noundef 84, ptr noundef @.str.17)
  store i64 -30, ptr %3, align 8
  store i32 1, ptr %10, align 4
  br label %70

57:                                               ; preds = %51
  %58 = load i64, ptr %8, align 8, !tbaa !45
  %59 = load i64, ptr %9, align 8, !tbaa !45
  %60 = sub i64 %59, %58
  store i64 %60, ptr %9, align 8, !tbaa !45
  %61 = load ptr, ptr %6, align 8, !tbaa !13
  %62 = getelementptr inbounds nuw %struct._7zip, ptr %61, i32 0, i32 26
  %63 = load i64, ptr %62, align 8, !tbaa !107
  %64 = icmp ne i64 %63, 0
  br i1 %64, label %65, label %67

65:                                               ; preds = %57
  %66 = load ptr, ptr %4, align 8, !tbaa !9
  call void @read_consume(ptr noundef %66)
  br label %67

67:                                               ; preds = %65, %57
  br label %40, !llvm.loop !323

68:                                               ; preds = %40
  %69 = load i64, ptr %5, align 8, !tbaa !45
  store i64 %69, ptr %3, align 8
  store i32 1, ptr %10, align 4
  br label %70

70:                                               ; preds = %68, %54, %49, %21
  call void @llvm.lifetime.end.p0(i64 8, ptr %9) #12
  call void @llvm.lifetime.end.p0(i64 8, ptr %8) #12
  call void @llvm.lifetime.end.p0(i64 8, ptr %7) #12
  call void @llvm.lifetime.end.p0(i64 8, ptr %6) #12
  %71 = load i64, ptr %3, align 8
  ret i64 %71
}

; Function Attrs: nounwind uwtable
define internal void @read_consume(ptr noundef %0) #0 {
  %2 = alloca ptr, align 8
  %3 = alloca ptr, align 8
  store ptr %0, ptr %2, align 8, !tbaa !9
  call void @llvm.lifetime.start.p0(i64 8, ptr %3) #12
  %4 = load ptr, ptr %2, align 8, !tbaa !9
  %5 = getelementptr inbounds nuw %struct.archive_read, ptr %4, i32 0, i32 13
  %6 = load ptr, ptr %5, align 8, !tbaa !51
  %7 = getelementptr inbounds nuw %struct.archive_format_descriptor, ptr %6, i32 0, i32 0
  %8 = load ptr, ptr %7, align 8, !tbaa !64
  store ptr %8, ptr %3, align 8, !tbaa !13
  %9 = load ptr, ptr %3, align 8, !tbaa !13
  %10 = getelementptr inbounds nuw %struct._7zip, ptr %9, i32 0, i32 26
  %11 = load i64, ptr %10, align 8, !tbaa !107
  %12 = icmp ne i64 %11, 0
  br i1 %12, label %13, label %28

13:                                               ; preds = %1
  %14 = load ptr, ptr %2, align 8, !tbaa !9
  %15 = load ptr, ptr %3, align 8, !tbaa !13
  %16 = getelementptr inbounds nuw %struct._7zip, ptr %15, i32 0, i32 26
  %17 = load i64, ptr %16, align 8, !tbaa !107
  %18 = call i64 @__archive_read_consume(ptr noundef %14, i64 noundef %17)
  %19 = load ptr, ptr %3, align 8, !tbaa !13
  %20 = getelementptr inbounds nuw %struct._7zip, ptr %19, i32 0, i32 26
  %21 = load i64, ptr %20, align 8, !tbaa !107
  %22 = load ptr, ptr %3, align 8, !tbaa !13
  %23 = getelementptr inbounds nuw %struct._7zip, ptr %22, i32 0, i32 20
  %24 = load i64, ptr %23, align 8, !tbaa !115
  %25 = add i64 %24, %21
  store i64 %25, ptr %23, align 8, !tbaa !115
  %26 = load ptr, ptr %3, align 8, !tbaa !13
  %27 = getelementptr inbounds nuw %struct._7zip, ptr %26, i32 0, i32 26
  store i64 0, ptr %27, align 8, !tbaa !107
  br label %28

28:                                               ; preds = %13, %1
  call void @llvm.lifetime.end.p0(i64 8, ptr %3) #12
  ret void
}

; Function Attrs: nounwind uwtable
define internal i32 @archive_read_format_7zip_read_data_skip(ptr noundef %0) #0 {
  %2 = alloca i32, align 4
  %3 = alloca ptr, align 8
  %4 = alloca ptr, align 8
  %5 = alloca i64, align 8
  %6 = alloca i32, align 4
  store ptr %0, ptr %3, align 8, !tbaa !9
  call void @llvm.lifetime.start.p0(i64 8, ptr %4) #12
  call void @llvm.lifetime.start.p0(i64 8, ptr %5) #12
  %7 = load ptr, ptr %3, align 8, !tbaa !9
  %8 = getelementptr inbounds nuw %struct.archive_read, ptr %7, i32 0, i32 13
  %9 = load ptr, ptr %8, align 8, !tbaa !51
  %10 = getelementptr inbounds nuw %struct.archive_format_descriptor, ptr %9, i32 0, i32 0
  %11 = load ptr, ptr %10, align 8, !tbaa !64
  store ptr %11, ptr %4, align 8, !tbaa !13
  %12 = load ptr, ptr %4, align 8, !tbaa !13
  %13 = getelementptr inbounds nuw %struct._7zip, ptr %12, i32 0, i32 26
  %14 = load i64, ptr %13, align 8, !tbaa !107
  %15 = icmp ne i64 %14, 0
  br i1 %15, label %16, label %18

16:                                               ; preds = %1
  %17 = load ptr, ptr %3, align 8, !tbaa !9
  call void @read_consume(ptr noundef %17)
  br label %18

18:                                               ; preds = %16, %1
  %19 = load ptr, ptr %4, align 8, !tbaa !13
  %20 = getelementptr inbounds nuw %struct._7zip, ptr %19, i32 0, i32 15
  %21 = load i8, ptr %20, align 8, !tbaa !75
  %22 = icmp ne i8 %21, 0
  br i1 %22, label %23, label %24

23:                                               ; preds = %18
  store i32 0, ptr %2, align 4
  store i32 1, ptr %6, align 4
  br label %38

24:                                               ; preds = %18
  %25 = load ptr, ptr %3, align 8, !tbaa !9
  %26 = load ptr, ptr %4, align 8, !tbaa !13
  %27 = getelementptr inbounds nuw %struct._7zip, ptr %26, i32 0, i32 13
  %28 = load i64, ptr %27, align 8, !tbaa !101
  %29 = call i64 @skip_stream(ptr noundef %25, i64 noundef %28)
  store i64 %29, ptr %5, align 8, !tbaa !45
  %30 = load i64, ptr %5, align 8, !tbaa !45
  %31 = icmp slt i64 %30, 0
  br i1 %31, label %32, label %33

32:                                               ; preds = %24
  store i32 -30, ptr %2, align 4
  store i32 1, ptr %6, align 4
  br label %38

33:                                               ; preds = %24
  %34 = load ptr, ptr %4, align 8, !tbaa !13
  %35 = getelementptr inbounds nuw %struct._7zip, ptr %34, i32 0, i32 13
  store i64 0, ptr %35, align 8, !tbaa !101
  %36 = load ptr, ptr %4, align 8, !tbaa !13
  %37 = getelementptr inbounds nuw %struct._7zip, ptr %36, i32 0, i32 15
  store i8 1, ptr %37, align 8, !tbaa !75
  store i32 0, ptr %2, align 4
  store i32 1, ptr %6, align 4
  br label %38

38:                                               ; preds = %33, %32, %23
  call void @llvm.lifetime.end.p0(i64 8, ptr %5) #12
  call void @llvm.lifetime.end.p0(i64 8, ptr %4) #12
  %39 = load i32, ptr %2, align 4
  ret i32 %39
}