; Function Attrs: nounwind uwtable
define internal range(i32 -30, 1) i32 @archive_read_format_7zip_read_data_skip(ptr noundef %0) #0 {
  %2 = alloca ptr, align 8
  %3 = getelementptr inbounds nuw i8, ptr %0, i64 2072
  %4 = load ptr, ptr %3, align 8, !tbaa !41
  %5 = load ptr, ptr %4, align 8, !tbaa !55
  %6 = getelementptr inbounds nuw i8, ptr %5, i64 288
  %7 = load i64, ptr %6, align 8, !tbaa !74
  %.not = icmp eq i64 %7, 0
  br i1 %.not, label %13, label %read_consume.exit

read_consume.exit:                                ; preds = %1
  %8 = tail call i64 @__archive_read_consume(ptr noundef nonnull %0, i64 noundef %7) #17
  %9 = load i64, ptr %6, align 8, !tbaa !74
  %10 = getelementptr inbounds nuw i8, ptr %5, i64 248
  %11 = load i64, ptr %10, align 8, !tbaa !63
  %12 = add i64 %11, %9
  store i64 %12, ptr %10, align 8, !tbaa !63
  store i64 0, ptr %6, align 8, !tbaa !74
  br label %13

13:                                               ; preds = %read_consume.exit, %1
  %14 = getelementptr inbounds nuw i8, ptr %5, i64 208
  %15 = load i8, ptr %14, align 8, !tbaa !87
  %.not9 = icmp eq i8 %15, 0
  br i1 %.not9, label %16, label %58

16:                                               ; preds = %13
  %17 = getelementptr inbounds nuw i8, ptr %5, i64 192
  %18 = load i64, ptr %17, align 8, !tbaa !109
  %19 = load ptr, ptr %3, align 8, !tbaa !41
  %20 = load ptr, ptr %19, align 8, !tbaa !55
  call void @llvm.lifetime.start.p0(i64 8, ptr nonnull %2) #17
  %21 = getelementptr inbounds nuw i8, ptr %20, i64 256
  %22 = load i32, ptr %21, align 8, !tbaa !114
  %23 = icmp eq i32 %22, 0
  br i1 %23, label %25, label %.preheader.i

.preheader.i:                                     ; preds = %16
  %.not22.i = icmp eq i64 %18, 0
  br i1 %.not22.i, label %skip_stream.exit.thread12, label %.lr.ph.i

skip_stream.exit.thread12:                        ; preds = %.preheader.i
  call void @llvm.lifetime.end.p0(i64 8, ptr nonnull %2) #17
  br label %57

.lr.ph.i:                                         ; preds = %.preheader.i
  %24 = getelementptr inbounds nuw i8, ptr %20, i64 288
  br label %36

25:                                               ; preds = %16
  %26 = getelementptr inbounds nuw i8, ptr %20, i64 56
  %27 = load ptr, ptr %26, align 8, !tbaa !69
  %28 = getelementptr inbounds nuw i8, ptr %20, i64 168
  %29 = load ptr, ptr %28, align 8, !tbaa !85
  %30 = getelementptr inbounds nuw i8, ptr %29, i64 16
  %31 = load i32, ptr %30, align 8, !tbaa !90
  %32 = zext i32 %31 to i64
  %33 = getelementptr inbounds nuw %struct._7z_folder, ptr %27, i64 %32, i32 13
  %34 = load i64, ptr %33, align 8, !tbaa !115
  %35 = add i64 %34, %18
  store i64 %35, ptr %33, align 8, !tbaa !115
  br label %skip_stream.exit

36:                                               ; preds = %read_consume.exit.i, %.lr.ph.i
  %.023.i = phi i64 [ %18, %.lr.ph.i ], [ %43, %read_consume.exit.i ]
  %37 = call fastcc i64 @read_stream(ptr noundef %0, ptr noundef nonnull %2, i64 noundef %.023.i, i64 noundef 0)
  %38 = icmp slt i64 %37, 0
  br i1 %38, label %skip_stream.exit.thread, label %39

39:                                               ; preds = %36
  %40 = icmp eq i64 %37, 0
  br i1 %40, label %41, label %42

41:                                               ; preds = %39
  tail call void (ptr, i32, ptr, ...) @archive_set_error(ptr noundef %0, i32 noundef 84, ptr noundef nonnull @.str.17) #17
  br label %skip_stream.exit.thread

42:                                               ; preds = %39
  %43 = sub i64 %.023.i, %37
  %44 = load i64, ptr %24, align 8, !tbaa !74
  %.not21.i = icmp eq i64 %44, 0
  br i1 %.not21.i, label %read_consume.exit.i, label %45

45:                                               ; preds = %42
  %46 = load ptr, ptr %3, align 8, !tbaa !41
  %47 = load ptr, ptr %46, align 8, !tbaa !55
  %48 = getelementptr inbounds nuw i8, ptr %47, i64 288
  %49 = load i64, ptr %48, align 8, !tbaa !74
  %.not.i.i = icmp eq i64 %49, 0
  br i1 %.not.i.i, label %read_consume.exit.i, label %50

50:                                               ; preds = %45
  %51 = tail call i64 @__archive_read_consume(ptr noundef nonnull %0, i64 noundef %49) #17
  %52 = load i64, ptr %48, align 8, !tbaa !74
  %53 = getelementptr inbounds nuw i8, ptr %47, i64 248
  %54 = load i64, ptr %53, align 8, !tbaa !63
  %55 = add i64 %54, %52
  store i64 %55, ptr %53, align 8, !tbaa !63
  store i64 0, ptr %48, align 8, !tbaa !74
  br label %read_consume.exit.i

read_consume.exit.i:                              ; preds = %50, %45, %42
  %.not.i10 = icmp eq i64 %43, 0
  br i1 %.not.i10, label %skip_stream.exit, label %36, !llvm.loop !116

skip_stream.exit.thread:                          ; preds = %36, %41
  call void @llvm.lifetime.end.p0(i64 8, ptr nonnull %2) #17
  br label %58

skip_stream.exit:                                 ; preds = %read_consume.exit.i, %25
  call void @llvm.lifetime.end.p0(i64 8, ptr nonnull %2) #17
  %56 = icmp slt i64 %18, 0
  br i1 %56, label %58, label %57

57:                                               ; preds = %skip_stream.exit.thread12, %skip_stream.exit
  store i64 0, ptr %17, align 8, !tbaa !109
  store i8 1, ptr %14, align 8, !tbaa !87
  br label %58

58:                                               ; preds = %skip_stream.exit.thread, %skip_stream.exit, %13, %57
  %.0 = phi i32 [ 0, %57 ], [ 0, %13 ], [ -30, %skip_stream.exit ], [ -30, %skip_stream.exit.thread ]
  ret i32 %.0
}